; Function Attrs: mustprogress uwtable
define internal fastcc noundef i32 @_ZN19OpenColorIO_v2_4dev12_GLOBAL__N_124GetValidatedFileBitDepthENS_8BitDepthENS_6OpData4TypeE(i32 noundef %bd, i32 noundef %type) unnamed_addr #4 personality ptr @__gxx_personality_v0 {
entry:
  %typeName = alloca %"class.std::__cxx11::basic_string", align 8
  %ref.tmp = alloca %"class.std::allocator", align 1
  %oss = alloca %"class.std::__cxx11::basic_ostringstream", align 8
  %ref.tmp26 = alloca %"class.std::__cxx11::basic_string", align 8
  %0 = icmp ult i32 %bd, 9
  br i1 %0, label %switch.hole_check, label %if.end12

if.end12:                                         ; preds = %switch.hole_check, %entry
  %call = tail call noundef ptr @_ZN19OpenColorIO_v2_4dev11GetTypeNameENS_6OpData4TypeE(i32 noundef %type)
  call void @_ZNSaIcEC1Ev(ptr noundef nonnull align 1 dereferenceable(1) %ref.tmp) #25
  invoke void @_ZNSt7__cxx1112basic_stringIcSt11char_traitsIcESaIcEEC1EPKcRKS3_(ptr noundef nonnull align 8 dereferenceable(32) %typeName, ptr noundef %call, ptr noundef nonnull align 1 dereferenceable(1) %ref.tmp)
          to label %invoke.cont unwind label %lpad

invoke.cont:                                      ; preds = %if.end12
  call void @_ZNSaIcED1Ev(ptr noundef nonnull align 1 dereferenceable(1) %ref.tmp) #25
  invoke void @_ZNSt7__cxx1119basic_ostringstreamIcSt11char_traitsIcESaIcEEC1Ev(ptr noundef nonnull align 8 dereferenceable(112) %oss)
          to label %invoke.cont14 unwind label %lpad13

invoke.cont14:                                    ; preds = %invoke.cont
  %call17 = invoke noundef nonnull align 8 dereferenceable(8) ptr @_ZStlsISt11char_traitsIcEERSt13basic_ostreamIcT_ES5_PKc(ptr noundef nonnull align 8 dereferenceable(8) %oss, ptr noundef nonnull @.str.55)
          to label %invoke.cont16 unwind label %lpad15

invoke.cont16:                                    ; preds = %invoke.cont14
  %call19 = invoke noundef nonnull align 8 dereferenceable(8) ptr @_ZStlsIcSt11char_traitsIcESaIcEERSt13basic_ostreamIT_T0_ES7_RKNSt7__cxx1112basic_stringIS4_S5_T1_EE(ptr noundef nonnull align 8 dereferenceable(8) %call17, ptr noundef nonnull align 8 dereferenceable(32) %typeName)
          to label %invoke.cont18 unwind label %lpad15

invoke.cont18:                                    ; preds = %invoke.cont16
  %call21 = invoke noundef nonnull align 8 dereferenceable(8) ptr @_ZStlsISt11char_traitsIcEERSt13basic_ostreamIcT_ES5_PKc(ptr noundef nonnull align 8 dereferenceable(8) %call19, ptr noundef nonnull @.str.56)
          to label %invoke.cont20 unwind label %lpad15

invoke.cont20:                                    ; preds = %invoke.cont18
  %call23 = invoke noundef nonnull align 8 dereferenceable(8) ptr @_ZNSolsEi(ptr noundef nonnull align 8 dereferenceable(8) %call21, i32 noundef %bd)
          to label %invoke.cont22 unwind label %lpad15

invoke.cont22:                                    ; preds = %invoke.cont20
  %call25 = invoke noundef nonnull align 8 dereferenceable(8) ptr @_ZStlsISt11char_traitsIcEERSt13basic_ostreamIcT_ES5_PKc(ptr noundef nonnull align 8 dereferenceable(8) %call23, ptr noundef nonnull @.str.57)
          to label %invoke.cont24 unwind label %lpad15

invoke.cont24:                                    ; preds = %invoke.cont22
  %exception = call ptr @__cxa_allocate_exception(i64 16) #25
  invoke void @_ZNKSt7__cxx1119basic_ostringstreamIcSt11char_traitsIcESaIcEE3strEv(ptr nonnull sret(%"class.std::__cxx11::basic_string") align 8 %ref.tmp26, ptr noundef nonnull align 8 dereferenceable(112) %oss)
          to label %invoke.cont28 unwind label %ehcleanup.thread

invoke.cont28:                                    ; preds = %invoke.cont24
  %call29 = call noundef ptr @_ZNKSt7__cxx1112basic_stringIcSt11char_traitsIcESaIcEE5c_strEv(ptr noundef nonnull align 8 dereferenceable(32) %ref.tmp26) #25
  invoke void @_ZN19OpenColorIO_v2_4dev9ExceptionC1EPKc(ptr noundef nonnull align 8 dereferenceable(16) %exception, ptr noundef %call29)
          to label %invoke.cont31 unwind label %ehcleanup.thread20

ehcleanup.thread20:                               ; preds = %invoke.cont28
  %1 = landingpad { ptr, i32 }
          cleanup
  call void @_ZNSt7__cxx1112basic_stringIcSt11char_traitsIcESaIcEED1Ev(ptr noundef nonnull align 8 dereferenceable(32) %ref.tmp26) #25
  br label %cleanup.action

invoke.cont31:                                    ; preds = %invoke.cont28
  invoke void @__cxa_throw(ptr nonnull %exception, ptr nonnull @_ZTIN19OpenColorIO_v2_4dev9ExceptionE, ptr nonnull @_ZN19OpenColorIO_v2_4dev9ExceptionD1Ev) #26
          to label %unreachable unwind label %ehcleanup

lpad:                                             ; preds = %if.end12
  %2 = landingpad { ptr, i32 }
          cleanup
  call void @_ZNSaIcED1Ev(ptr noundef nonnull align 1 dereferenceable(1) %ref.tmp) #25
  br label %eh.resume

lpad13:                                           ; preds = %invoke.cont
  %3 = landingpad { ptr, i32 }
          cleanup
  br label %ehcleanup33

lpad15:                                           ; preds = %invoke.cont22, %invoke.cont20, %invoke.cont18, %invoke.cont16, %invoke.cont14
  %4 = landingpad { ptr, i32 }
          cleanup
  br label %ehcleanup32

ehcleanup.thread:                                 ; preds = %invoke.cont24
  %5 = landingpad { ptr, i32 }
          cleanup
  br label %cleanup.action

ehcleanup:                                        ; preds = %invoke.cont31
  %6 = landingpad { ptr, i32 }
          cleanup
  call void @_ZNSt7__cxx1112basic_stringIcSt11char_traitsIcESaIcEED1Ev(ptr noundef nonnull align 8 dereferenceable(32) %ref.tmp26) #25
  br label %ehcleanup32

cleanup.action:                                   ; preds = %ehcleanup.thread20, %ehcleanup.thread
  %.pn19 = phi { ptr, i32 } [ %5, %ehcleanup.thread ], [ %1, %ehcleanup.thread20 ]
  call void @__cxa_free_exception(ptr %exception) #25
  br label %ehcleanup32

ehcleanup32:                                      ; preds = %ehcleanup, %cleanup.action, %lpad15
  %.pn.pn = phi { ptr, i32 } [ %.pn19, %cleanup.action ], [ %6, %ehcleanup ], [ %4, %lpad15 ]
  call void @_ZNSt7__cxx1119basic_ostringstreamIcSt11char_traitsIcESaIcEED1Ev(ptr noundef nonnull align 8 dereferenceable(112) %oss) #25
  br label %ehcleanup33

ehcleanup33:                                      ; preds = %ehcleanup32, %lpad13
  %.pn.pn.pn = phi { ptr, i32 } [ %.pn.pn, %ehcleanup32 ], [ %3, %lpad13 ]
  call void @_ZNSt7__cxx1112basic_stringIcSt11char_traitsIcESaIcEED1Ev(ptr noundef nonnull align 8 dereferenceable(32) %typeName) #25
  br label %eh.resume

switch.hole_check:                                ; preds = %entry
  %switch.maskindex = trunc i32 %bd to i16
  %switch.shifted = lshr i16 431, %switch.maskindex
  %7 = and i16 %switch.shifted, 1
  %switch.lobit.not = icmp eq i16 %7, 0
  br i1 %switch.lobit.not, label %if.end12, label %switch.lookup

switch.lookup:                                    ; preds = %switch.hole_check
  %8 = zext nneg i32 %bd to i64
  %switch.gep = getelementptr inbounds [9 x i32], ptr @switch.table._ZN19OpenColorIO_v2_4dev12_GLOBAL__N_124GetValidatedFileBitDepthENS_8BitDepthENS_6OpData4TypeE, i64 0, i64 %8
  %switch.load = load i32, ptr %switch.gep, align 4
  ret i32 %switch.load

eh.resume:                                        ; preds = %ehcleanup33, %lpad
  %.pn.pn.pn.pn = phi { ptr, i32 } [ %.pn.pn.pn, %ehcleanup33 ], [ %2, %lpad ]
  resume { ptr, i32 } %.pn.pn.pn.pn

unreachable:                                      ; preds = %invoke.cont31
  unreachable
}